target datalayout = "e-m:e-p270:32:32-p271:32:32-p272:64:64-i64:64-i128:128-f80:128-n8:16:32:64-S128"
target triple = "x86_64-pc-linux-gnu"

@hf_mip6_vsm_vid = internal global i32 0, align 4
@hf_mip6_vsm_subtype = internal global i32 0, align 4
@hf_mip6_vsm_subtype_3gpp = internal global i32 0, align 4
@hf_mip6_vsm_req_data = internal global i32 0, align 4
@hf_mip6_cr_reserved = internal global i32 0, align 4
@hf_mip6_cr_req_type = internal global i32 0, align 4
@hf_mip6_cr_req_length = internal global i32 0, align 4
@ett_mip6_opt_cr = internal global i32 0, align 4
@proto_mip6_option_cr = internal global i32 0, align 4

; Function Attrs: null_pointer_is_valid sspstrong uwtable
define internal i32 @dissect_pmip6_opt_cr(ptr noundef %0, ptr noundef %1, ptr noundef %2, ptr noundef %3) #0 {
  %5 = alloca ptr, align 8
  %6 = alloca ptr, align 8
  %7 = alloca ptr, align 8
  %8 = alloca ptr, align 8
  %9 = alloca ptr, align 8
  %10 = alloca ptr, align 8
  %11 = alloca i32, align 4
  %12 = alloca i32, align 4
  %13 = alloca i8, align 1
  %14 = alloca i8, align 1
  %15 = alloca i32, align 4
  store ptr %0, ptr %5, align 8
  store ptr %1, ptr %6, align 8
  store ptr %2, ptr %7, align 8
  store ptr %3, ptr %8, align 8
  call void @llvm.lifetime.start.p0(i64 8, ptr %9) #6
  call void @llvm.lifetime.start.p0(i64 8, ptr %10) #6
  call void @llvm.lifetime.start.p0(i64 4, ptr %11) #6
  %16 = load ptr, ptr %5, align 8
  %17 = call i32 @tvb_reported_length(ptr noundef %16)
  %18 = sub i32 %17, 2
  store i32 %18, ptr %11, align 4
  call void @llvm.lifetime.start.p0(i64 4, ptr %12) #6
  store i32 2, ptr %12, align 4
  call void @llvm.lifetime.start.p0(i64 1, ptr %13) #6
  call void @llvm.lifetime.start.p0(i64 1, ptr %14) #6
  call void @llvm.lifetime.start.p0(i64 4, ptr %15) #6
  %19 = load ptr, ptr %7, align 8
  %20 = load ptr, ptr %6, align 8
  %21 = load ptr, ptr %5, align 8
  %22 = load i32, ptr @proto_mip6_option_cr, align 4
  %23 = load i32, ptr @ett_mip6_opt_cr, align 4
  %24 = load i32, ptr %11, align 4
  %25 = call ptr @mip6_var_option_header(ptr noundef %19, ptr noundef %20, ptr noundef %21, i32 noundef %22, i32 noundef %23, ptr noundef %10, i32 noundef %24, i32 noundef 4)
  store ptr %25, ptr %9, align 8
  %26 = load ptr, ptr %9, align 8
  %27 = load i32, ptr @hf_mip6_cr_reserved, align 4
  %28 = load ptr, ptr %5, align 8
  %29 = load i32, ptr %12, align 4
  %30 = call ptr @proto_tree_add_item(ptr noundef %26, i32 noundef %27, ptr noundef %28, i32 noundef %29, i32 noundef 2, i32 noundef 0)
  %31 = load i32, ptr %12, align 4
  %32 = add i32 %31, 2
  store i32 %32, ptr %12, align 4
  br label %33

33:                                               ; preds = %98, %62, %4
  %34 = load i32, ptr %12, align 4
  %35 = sub i32 %34, 2
  %36 = load i32, ptr %11, align 4
  %37 = icmp slt i32 %35, %36
  br i1 %37, label %38, label %103

38:                                               ; preds = %33
  %39 = load ptr, ptr %5, align 8
  %40 = load i32, ptr %12, align 4
  %41 = call zeroext i8 @tvb_get_uint8(ptr noundef %39, i32 noundef %40)
  store i8 %41, ptr %13, align 1
  %42 = load ptr, ptr %9, align 8
  %43 = load i32, ptr @hf_mip6_cr_req_type, align 4
  %44 = load ptr, ptr %5, align 8
  %45 = load i32, ptr %12, align 4
  %46 = call ptr @proto_tree_add_item(ptr noundef %42, i32 noundef %43, ptr noundef %44, i32 noundef %45, i32 noundef 1, i32 noundef 0)
  %47 = load i32, ptr %12, align 4
  %48 = add i32 %47, 1
  store i32 %48, ptr %12, align 4
  %49 = load ptr, ptr %5, align 8
  %50 = load i32, ptr %12, align 4
  %51 = call zeroext i8 @tvb_get_uint8(ptr noundef %49, i32 noundef %50)
  store i8 %51, ptr %14, align 1
  %52 = load ptr, ptr %9, align 8
  %53 = load i32, ptr @hf_mip6_cr_req_length, align 4
  %54 = load ptr, ptr %5, align 8
  %55 = load i32, ptr %12, align 4
  %56 = call ptr @proto_tree_add_item(ptr noundef %52, i32 noundef %53, ptr noundef %54, i32 noundef %55, i32 noundef 1, i32 noundef 0)
  %57 = load i32, ptr %12, align 4
  %58 = add i32 %57, 1
  store i32 %58, ptr %12, align 4
  %59 = load i8, ptr %14, align 1
  %60 = zext i8 %59 to i32
  %61 = icmp eq i32 %60, 0
  br i1 %61, label %62, label %63

62:                                               ; preds = %38
  br label %33, !llvm.loop !6

63:                                               ; preds = %38
  %64 = load i8, ptr %13, align 1
  %65 = zext i8 %64 to i32
  %66 = icmp eq i32 %65, 19
  br i1 %66, label %67, label %90

67:                                               ; preds = %63
  %68 = load ptr, ptr %9, align 8
  %69 = load i32, ptr @hf_mip6_vsm_vid, align 4
  %70 = load ptr, ptr %5, align 8
  %71 = load i32, ptr %12, align 4
  %72 = call ptr @proto_tree_add_item_ret_uint(ptr noundef %68, i32 noundef %69, ptr noundef %70, i32 noundef %71, i32 noundef 4, i32 noundef 0, ptr noundef %15)
  %73 = load i32, ptr %15, align 4
  %74 = icmp eq i32 %73, 10415
  br i1 %74, label %75, label %82

75:                                               ; preds = %67
  %76 = load ptr, ptr %9, align 8
  %77 = load i32, ptr @hf_mip6_vsm_subtype_3gpp, align 4
  %78 = load ptr, ptr %5, align 8
  %79 = load i32, ptr %12, align 4
  %80 = add i32 %79, 4
  %81 = call ptr @proto_tree_add_item(ptr noundef %76, i32 noundef %77, ptr noundef %78, i32 noundef %80, i32 noundef 1, i32 noundef 0)
  br label %89

82:                                               ; preds = %67
  %83 = load ptr, ptr %9, align 8
  %84 = load i32, ptr @hf_mip6_vsm_subtype, align 4
  %85 = load ptr, ptr %5, align 8
  %86 = load i32, ptr %12, align 4
  %87 = add i32 %86, 4
  %88 = call ptr @proto_tree_add_item(ptr noundef %83, i32 noundef %84, ptr noundef %85, i32 noundef %87, i32 noundef 1, i32 noundef 0)
  br label %89

89:                                               ; preds = %82, %75
  br label %98

90:                                               ; preds = %63
  %91 = load ptr, ptr %9, align 8
  %92 = load i32, ptr @hf_mip6_vsm_req_data, align 4
  %93 = load ptr, ptr %5, align 8
  %94 = load i32, ptr %12, align 4
  %95 = load i8, ptr %14, align 1
  %96 = zext i8 %95 to i32
  %97 = call ptr @proto_tree_add_item(ptr noundef %91, i32 noundef %92, ptr noundef %93, i32 noundef %94, i32 noundef %96, i32 noundef 0)
  br label %98

98:                                               ; preds = %90, %89
  %99 = load i8, ptr %14, align 1
  %100 = zext i8 %99 to i32
  %101 = load i32, ptr %12, align 4
  %102 = add i32 %101, %100
  store i32 %102, ptr %12, align 4
  br label %33, !llvm.loop !6

103:                                              ; preds = %33
  %104 = load ptr, ptr %5, align 8
  %105 = call i32 @tvb_captured_length(ptr noundef %104)
  call void @llvm.lifetime.end.p0(i64 4, ptr %15) #6
  call void @llvm.lifetime.end.p0(i64 1, ptr %14) #6
  call void @llvm.lifetime.end.p0(i64 1, ptr %13) #6
  call void @llvm.lifetime.end.p0(i64 4, ptr %12) #6
  call void @llvm.lifetime.end.p0(i64 4, ptr %11) #6
  call void @llvm.lifetime.end.p0(i64 8, ptr %10) #6
  call void @llvm.lifetime.end.p0(i64 8, ptr %9) #6
  ret i32 %105
}