; Function Attrs: null_pointer_is_valid sspstrong uwtable
define internal i32 @dissect_pmip6_opt_cr(ptr noundef %0, ptr noundef %1, ptr noundef %2, ptr readnone captures(none) %3) #0 {
  %5 = alloca ptr, align 8
  %6 = alloca i32, align 4
  call void @llvm.lifetime.start.p0(i64 8, ptr nonnull %5) #5
  %7 = tail call i32 @tvb_reported_length(ptr noundef %0)
  %8 = add i32 %7, -2
  call void @llvm.lifetime.start.p0(i64 4, ptr nonnull %6) #5
  %9 = load i32, ptr @proto_mip6_option_cr, align 4
  %10 = load i32, ptr @ett_mip6_opt_cr, align 4
  %11 = call fastcc ptr @mip6_var_option_header(ptr noundef %2, ptr noundef %1, ptr noundef %0, i32 noundef %9, i32 noundef %10, ptr noundef nonnull %5, i32 noundef %8, i32 noundef 4)
  %12 = load i32, ptr @hf_mip6_cr_reserved, align 4
  %13 = tail call ptr @proto_tree_add_item(ptr noundef %11, i32 noundef %12, ptr noundef %0, i32 noundef 2, i32 noundef 2, i32 noundef 0)
  %14 = icmp sgt i32 %8, 2
  br i1 %14, label %.lr.ph, label %._crit_edge

.lr.ph:                                           ; preds = %4, %.backedge
  %.041 = phi i32 [ %.0.be, %.backedge ], [ 4, %4 ]
  %15 = call zeroext i8 @tvb_get_uint8(ptr noundef %0, i32 noundef %.041)
  %16 = load i32, ptr @hf_mip6_cr_req_type, align 4
  %17 = call ptr @proto_tree_add_item(ptr noundef %11, i32 noundef %16, ptr noundef %0, i32 noundef %.041, i32 noundef 1, i32 noundef 0)
  %18 = add i32 %.041, 1
  %19 = call zeroext i8 @tvb_get_uint8(ptr noundef %0, i32 noundef %18)
  %20 = load i32, ptr @hf_mip6_cr_req_length, align 4
  %21 = call ptr @proto_tree_add_item(ptr noundef %11, i32 noundef %20, ptr noundef %0, i32 noundef %18, i32 noundef 1, i32 noundef 0)
  %22 = add i32 %.041, 2
  %23 = zext i8 %19 to i32
  %24 = icmp eq i8 %19, 0
  br i1 %24, label %.backedge, label %25

25:                                               ; preds = %.lr.ph
  %26 = icmp eq i8 %15, 19
  br i1 %26, label %27, label %39

27:                                               ; preds = %25
  %28 = load i32, ptr @hf_mip6_vsm_vid, align 4
  %29 = call ptr @proto_tree_add_item_ret_uint(ptr noundef %11, i32 noundef %28, ptr noundef %0, i32 noundef %22, i32 noundef 4, i32 noundef 0, ptr noundef nonnull %6)
  %30 = load i32, ptr %6, align 4
  %31 = icmp eq i32 %30, 10415
  %32 = add i32 %.041, 6
  br i1 %31, label %33, label %36

33:                                               ; preds = %27
  %34 = load i32, ptr @hf_mip6_vsm_subtype_3gpp, align 4
  %35 = call ptr @proto_tree_add_item(ptr noundef %11, i32 noundef %34, ptr noundef %0, i32 noundef %32, i32 noundef 1, i32 noundef 0)
  br label %42

36:                                               ; preds = %27
  %37 = load i32, ptr @hf_mip6_vsm_subtype, align 4
  %38 = call ptr @proto_tree_add_item(ptr noundef %11, i32 noundef %37, ptr noundef %0, i32 noundef %32, i32 noundef 1, i32 noundef 0)
  br label %42

39:                                               ; preds = %25
  %40 = load i32, ptr @hf_mip6_vsm_req_data, align 4
  %41 = call ptr @proto_tree_add_item(ptr noundef %11, i32 noundef %40, ptr noundef %0, i32 noundef %22, i32 noundef %23, i32 noundef 0)
  br label %42

42:                                               ; preds = %33, %36, %39
  %43 = add i32 %22, %23
  br label %.backedge

.backedge:                                        ; preds = %42, %.lr.ph
  %.0.be = phi i32 [ %22, %.lr.ph ], [ %43, %42 ]
  %44 = add i32 %.0.be, -2
  %45 = icmp slt i32 %44, %8
  br i1 %45, label %.lr.ph, label %._crit_edge, !llvm.loop !9

._crit_edge:                                      ; preds = %.backedge, %4
  %46 = call i32 @tvb_captured_length(ptr noundef %0)
  call void @llvm.lifetime.end.p0(i64 4, ptr nonnull %6) #5
  call void @llvm.lifetime.end.p0(i64 8, ptr nonnull %5) #5
  ret i32 %46
}